target datalayout = "e-m:e-p270:32:32-p271:32:32-p272:64:64-i64:64-i128:128-f80:128-n8:16:32:64-S128"
target triple = "x86_64-pc-linux-gnu"

%"class.icu_77::ConstrainedFieldPosition" = type <{ i64, i32, i32, i32, i32, i8, [7 x i8] }>

; Function Attrs: mustprogress nounwind uwtable
define noundef signext i8 @_ZNK6icu_7724ConstrainedFieldPosition12matchesFieldEii(ptr noundef nonnull align 8 dereferenceable(25) %0, i32 noundef %1, i32 noundef %2) #0 align 2 {
  %4 = alloca i8, align 1
  %5 = alloca ptr, align 8
  %6 = alloca i32, align 4
  %7 = alloca i32, align 4
  store ptr %0, ptr %5, align 8, !tbaa !23
  store i32 %1, ptr %6, align 4, !tbaa !14
  store i32 %2, ptr %7, align 4, !tbaa !14
  %8 = load ptr, ptr %5, align 8
  %9 = getelementptr inbounds nuw %"class.icu_77::ConstrainedFieldPosition", ptr %8, i32 0, i32 5
  %10 = load i8, ptr %9, align 8, !tbaa !31
  %11 = sext i8 %10 to i32
  switch i32 %11, label %32 [
    i32 0, label %12
    i32 1, label %13
    i32 2, label %19
  ]

12:                                               ; preds = %3
  store i8 1, ptr %4, align 1
  br label %33

13:                                               ; preds = %3
  %14 = getelementptr inbounds nuw %"class.icu_77::ConstrainedFieldPosition", ptr %8, i32 0, i32 4
  %15 = load i32, ptr %14, align 4, !tbaa !30
  %16 = load i32, ptr %6, align 4, !tbaa !14
  %17 = icmp eq i32 %15, %16
  %18 = zext i1 %17 to i8
  store i8 %18, ptr %4, align 1
  br label %33

19:                                               ; preds = %3
  %20 = getelementptr inbounds nuw %"class.icu_77::ConstrainedFieldPosition", ptr %8, i32 0, i32 4
  %21 = load i32, ptr %20, align 4, !tbaa !30
  %22 = load i32, ptr %6, align 4, !tbaa !14
  %23 = icmp eq i32 %21, %22
  br i1 %23, label %24, label %29

24:                                               ; preds = %19
  %25 = getelementptr inbounds nuw %"class.icu_77::ConstrainedFieldPosition", ptr %8, i32 0, i32 1
  %26 = load i32, ptr %25, align 8, !tbaa !27
  %27 = load i32, ptr %7, align 4, !tbaa !14
  %28 = icmp eq i32 %26, %27
  br label %29

29:                                               ; preds = %24, %19
  %30 = phi i1 [ false, %19 ], [ %28, %24 ]
  %31 = zext i1 %30 to i8
  store i8 %31, ptr %4, align 1
  br label %33

32:                                               ; preds = %3
  call void @abort() #15
  unreachable

33:                                               ; preds = %29, %13, %12
  %34 = load i8, ptr %4, align 1
  ret i8 %34
}