; Function Attrs: mustprogress nofree nounwind uwtable
define noundef signext range(i8 0, 2) i8 @_ZNK6icu_7724ConstrainedFieldPosition12matchesFieldEii(ptr noundef nonnull readonly align 8 captures(none) dereferenceable(25) %0, i32 noundef %1, i32 noundef %2) local_unnamed_addr #12 align 2 {
  %4 = getelementptr inbounds nuw i8, ptr %0, i64 24
  %5 = load i8, ptr %4, align 8, !tbaa !15
  switch i8 %5, label %17 [
    i8 0, label %18
    i8 1, label %6
    i8 2, label %10
  ]

6:                                                ; preds = %3
  %7 = getelementptr inbounds nuw i8, ptr %0, i64 20
  %8 = load i32, ptr %7, align 4, !tbaa !18
  %9 = icmp eq i32 %8, %1
  br label %18

10:                                               ; preds = %3
  %11 = getelementptr inbounds nuw i8, ptr %0, i64 20
  %12 = load i32, ptr %11, align 4, !tbaa !18
  %13 = icmp eq i32 %12, %1
  %14 = getelementptr inbounds nuw i8, ptr %0, i64 8
  %15 = load i32, ptr %14, align 8
  %16 = icmp eq i32 %15, %2
  %narrow = select i1 %13, i1 %16, i1 false
  br label %18

17:                                               ; preds = %3
  tail call void @abort() #22
  unreachable

18:                                               ; preds = %3, %10, %6
  %.0.shrunk = phi i1 [ %narrow, %10 ], [ %9, %6 ], [ true, %3 ]
  %.0 = zext i1 %.0.shrunk to i8
  ret i8 %.0
}